; ModuleID = 'source-C-CXX/39/2786.c'
source_filename = "source-C-CXX/39/2786.c"
target datalayout = "e-m:e-p270:32:32-p271:32:32-p272:64:64-i64:64-f80:128-n8:16:32:64-S128"
target triple = "x86_64-pc-linux-gnu"

@.str = private unnamed_addr constant [4 x i8] c"%lf\00", align 1
@.str.1 = private unnamed_addr constant [14 x i8] c"Invalid input\00", align 1
@.str.2 = private unnamed_addr constant [6 x i8] c"%.4lf\00", align 1

; Function Attrs: mustprogress nofree nounwind sspstrong uwtable willreturn
define dso_local double @S(double %0, double %1, double %2, double %3, double %4) local_unnamed_addr #0 {
  %6 = fadd double %0, %1
  %7 = fadd double %6, %2
  %8 = fadd double %7, %3
  %9 = fmul double %8, 5.000000e-01
  %10 = fsub double %9, %0
  %11 = fsub double %9, %1
  %12 = fmul double %10, %11
  %13 = fsub double %9, %2
  %14 = fmul double %13, %12
  %15 = fsub double %9, %3
  %16 = fmul double %15, %14
  %17 = fmul double %0, %1
  %18 = fmul double %17, %2
  %19 = fmul double %18, %3
  %20 = tail call double @cos(double %4) #5
  %21 = fmul double %19, %20
  %22 = tail call double @cos(double %4) #5
  %23 = fmul double %21, %22
  %24 = fsub double %16, %23
  %25 = fcmp olt double %24, 0.000000e+00
  br i1 %25, label %28, label %26

26:                                               ; preds = %5
  %27 = tail call double @sqrt(double %24) #5
  br label %28

28:                                               ; preds = %5, %26
  %29 = phi double [ %27, %26 ], [ 1.000000e+00, %5 ]
  ret double %29
}

; Function Attrs: argmemonly mustprogress nofree nosync nounwind willreturn
declare void @llvm.lifetime.start.p0i8(i64 immarg, i8* nocapture) #1

; Function Attrs: mustprogress nofree nounwind willreturn
declare double @cos(double) local_unnamed_addr #2

; Function Attrs: mustprogress nofree nounwind willreturn
declare double @sqrt(double) local_unnamed_addr #2

; Function Attrs: argmemonly mustprogress nofree nosync nounwind willreturn
declare void @llvm.lifetime.end.p0i8(i64 immarg, i8* nocapture) #1

; Function Attrs: nofree nounwind sspstrong uwtable
define dso_local i32 @main() local_unnamed_addr #3 {
  %1 = alloca double, align 8
  %2 = alloca double, align 8
  %3 = alloca double, align 8
  %4 = alloca double, align 8
  %5 = alloca double, align 8
  %6 = bitcast double* %1 to i8*
  call void @llvm.lifetime.start.p0i8(i64 8, i8* nonnull %6) #5
  %7 = bitcast double* %2 to i8*
  call void @llvm.lifetime.start.p0i8(i64 8, i8* nonnull %7) #5
  %8 = bitcast double* %3 to i8*
  call void @llvm.lifetime.start.p0i8(i64 8, i8* nonnull %8) #5
  %9 = bitcast double* %4 to i8*
  call void @llvm.lifetime.start.p0i8(i64 8, i8* nonnull %9) #5
  %10 = bitcast double* %5 to i8*
  call void @llvm.lifetime.start.p0i8(i64 8, i8* nonnull %10) #5
  %11 = call i32 (i8*, ...) @__isoc99_scanf(i8* getelementptr inbounds ([4 x i8], [4 x i8]* @.str, i64 0, i64 0), double* nonnull %1)
  %12 = call i32 (i8*, ...) @__isoc99_scanf(i8* getelementptr inbounds ([4 x i8], [4 x i8]* @.str, i64 0, i64 0), double* nonnull %2)
  %13 = call i32 (i8*, ...) @__isoc99_scanf(i8* getelementptr inbounds ([4 x i8], [4 x i8]* @.str, i64 0, i64 0), double* nonnull %3)
  %14 = call i32 (i8*, ...) @__isoc99_scanf(i8* getelementptr inbounds ([4 x i8], [4 x i8]* @.str, i64 0, i64 0), double* nonnull %4)
  %15 = call i32 (i8*, ...) @__isoc99_scanf(i8* getelementptr inbounds ([4 x i8], [4 x i8]* @.str, i64 0, i64 0), double* nonnull %5)
  %16 = load double, double* %5, align 8, !tbaa !5
  %17 = fdiv double %16, 3.600000e+02
  %18 = fmul double %17, 1.000000e+02
  %19 = load double, double* %1, align 8, !tbaa !5
  %20 = load double, double* %2, align 8, !tbaa !5
  %21 = load double, double* %3, align 8, !tbaa !5
  %22 = load double, double* %4, align 8, !tbaa !5
  %23 = fadd double %19, %20
  %24 = fadd double %23, %21
  %25 = fadd double %24, %22
  %26 = fmul double %25, 5.000000e-01
  %27 = fsub double %26, %19
  %28 = fsub double %26, %20
  %29 = fmul double %27, %28
  %30 = fsub double %26, %21
  %31 = fmul double %30, %29
  %32 = fsub double %26, %22
  %33 = fmul double %32, %31
  %34 = fmul double %19, %20
  %35 = fmul double %34, %21
  %36 = fmul double %35, %22
  %37 = call double @cos(double %18) #5
  %38 = fmul double %36, %37
  %39 = call double @cos(double %18) #5
  %40 = fmul double %38, %39
  %41 = fsub double %33, %40
  %42 = fcmp olt double %41, 0.000000e+00
  br i1 %42, label %46, label %43

43:                                               ; preds = %0
  %44 = call double @sqrt(double %41) #5
  %45 = fcmp oeq double %44, 1.000000e+00
  br i1 %45, label %46, label %48

46:                                               ; preds = %0, %43
  %47 = call i32 (i8*, ...) @printf(i8* nonnull dereferenceable(1) getelementptr inbounds ([14 x i8], [14 x i8]* @.str.1, i64 0, i64 0))
  br label %78

48:                                               ; preds = %43
  %49 = load double, double* %1, align 8, !tbaa !5
  %50 = load double, double* %2, align 8, !tbaa !5
  %51 = load double, double* %3, align 8, !tbaa !5
  %52 = load double, double* %4, align 8, !tbaa !5
  %53 = fadd double %49, %50
  %54 = fadd double %53, %51
  %55 = fadd double %54, %52
  %56 = fmul double %55, 5.000000e-01
  %57 = fsub double %56, %49
  %58 = fsub double %56, %50
  %59 = fmul double %57, %58
  %60 = fsub double %56, %51
  %61 = fmul double %60, %59
  %62 = fsub double %56, %52
  %63 = fmul double %62, %61
  %64 = fmul double %49, %50
  %65 = fmul double %64, %51
  %66 = fmul double %65, %52
  %67 = call double @cos(double %18) #5
  %68 = fmul double %66, %67
  %69 = call double @cos(double %18) #5
  %70 = fmul double %68, %69
  %71 = fsub double %63, %70
  %72 = fcmp olt double %71, 0.000000e+00
  br i1 %72, label %75, label %73

73:                                               ; preds = %48
  %74 = call double @sqrt(double %71) #5
  br label %75

75:                                               ; preds = %48, %73
  %76 = phi double [ %74, %73 ], [ 1.000000e+00, %48 ]
  %77 = call i32 (i8*, ...) @printf(i8* nonnull dereferenceable(1) getelementptr inbounds ([6 x i8], [6 x i8]* @.str.2, i64 0, i64 0), double %76)
  br label %78

78:                                               ; preds = %75, %46
  call void @llvm.lifetime.end.p0i8(i64 8, i8* nonnull %10) #5
  call void @llvm.lifetime.end.p0i8(i64 8, i8* nonnull %9) #5
  call void @llvm.lifetime.end.p0i8(i64 8, i8* nonnull %8) #5
  call void @llvm.lifetime.end.p0i8(i64 8, i8* nonnull %7) #5
  call void @llvm.lifetime.end.p0i8(i64 8, i8* nonnull %6) #5
  ret i32 0
}

; Function Attrs: nofree nounwind
declare noundef i32 @__isoc99_scanf(i8* nocapture noundef readonly, ...) local_unnamed_addr #4

; Function Attrs: nofree nounwind
declare noundef i32 @printf(i8* nocapture noundef readonly, ...) local_unnamed_addr #4


!llvm.module.flags = !{!0, !1, !2, !3}
!llvm.ident = !{!4}

!0 = !{i32 1, !"wchar_size", i32 4}
!1 = !{i32 7, !"PIC Level", i32 2}
!2 = !{i32 7, !"PIE Level", i32 2}
!3 = !{i32 7, !"uwtable", i32 1}
!4 = !{!"clang version 13.0.0"}
!5 = !{!6, !6, i64 0}
!6 = !{!"double", !7, i64 0}
!7 = !{!"omnipotent char", !8, i64 0}
!8 = !{!"Simple C/C++ TBAA"}
